target datalayout = "e-m:e-p270:32:32-p271:32:32-p272:64:64-i64:64-i128:128-f80:128-n8:16:32:64-S128"
target triple = "x86_64-pc-linux-gnu"

; Function Attrs: nounwind uwtable
define internal void @premultiply8yuv(ptr noundef %0, ptr noundef %1, ptr noundef %2, i64 noundef %3, i64 noundef %4, i64 noundef %5, i32 noundef %6, i32 noundef %7, i32 noundef %8, i32 noundef %9, i32 noundef %10) #1 {
  %12 = alloca ptr, align 8
  %13 = alloca ptr, align 8
  %14 = alloca ptr, align 8
  %15 = alloca i64, align 8
  %16 = alloca i64, align 8
  %17 = alloca i64, align 8
  %18 = alloca i32, align 4
  %19 = alloca i32, align 4
  %20 = alloca i32, align 4
  %21 = alloca i32, align 4
  %22 = alloca i32, align 4
  %23 = alloca i32, align 4
  %24 = alloca i32, align 4
  store ptr %0, ptr %12, align 8, !tbaa !91
  store ptr %1, ptr %13, align 8, !tbaa !91
  store ptr %2, ptr %14, align 8, !tbaa !91
  store i64 %3, ptr %15, align 8, !tbaa !50
  store i64 %4, ptr %16, align 8, !tbaa !50
  store i64 %5, ptr %17, align 8, !tbaa !50
  store i32 %6, ptr %18, align 4, !tbaa !37
  store i32 %7, ptr %19, align 4, !tbaa !37
  store i32 %8, ptr %20, align 4, !tbaa !37
  store i32 %9, ptr %21, align 4, !tbaa !37
  store i32 %10, ptr %22, align 4, !tbaa !37
  call void @llvm.lifetime.start.p0(i64 4, ptr %23) #11
  call void @llvm.lifetime.start.p0(i64 4, ptr %24) #11
  store i32 0, ptr %24, align 4, !tbaa !37
  br label %25

25:                                               ; preds = %78, %11
  %26 = load i32, ptr %24, align 4, !tbaa !37
  %27 = load i32, ptr %19, align 4, !tbaa !37
  %28 = icmp slt i32 %26, %27
  br i1 %28, label %29, label %81

29:                                               ; preds = %25
  store i32 0, ptr %23, align 4, !tbaa !37
  br label %30

30:                                               ; preds = %65, %29
  %31 = load i32, ptr %23, align 4, !tbaa !37
  %32 = load i32, ptr %18, align 4, !tbaa !37
  %33 = icmp slt i32 %31, %32
  br i1 %33, label %34, label %68

34:                                               ; preds = %30
  %35 = load ptr, ptr %12, align 8, !tbaa !91
  %36 = load i32, ptr %23, align 4, !tbaa !37
  %37 = sext i32 %36 to i64
  %38 = getelementptr inbounds i8, ptr %35, i64 %37
  %39 = load i8, ptr %38, align 1, !tbaa !92
  %40 = zext i8 %39 to i32
  %41 = sub nsw i32 %40, 128
  %42 = load ptr, ptr %13, align 8, !tbaa !91
  %43 = load i32, ptr %23, align 4, !tbaa !37
  %44 = sext i32 %43 to i64
  %45 = getelementptr inbounds i8, ptr %42, i64 %44
  %46 = load i8, ptr %45, align 1, !tbaa !92
  %47 = zext i8 %46 to i32
  %48 = ashr i32 %47, 1
  %49 = and i32 %48, 1
  %50 = load ptr, ptr %13, align 8, !tbaa !91
  %51 = load i32, ptr %23, align 4, !tbaa !37
  %52 = sext i32 %51 to i64
  %53 = getelementptr inbounds i8, ptr %50, i64 %52
  %54 = load i8, ptr %53, align 1, !tbaa !92
  %55 = zext i8 %54 to i32
  %56 = add nsw i32 %49, %55
  %57 = mul nsw i32 %41, %56
  %58 = ashr i32 %57, 8
  %59 = add nsw i32 %58, 128
  %60 = trunc i32 %59 to i8
  %61 = load ptr, ptr %14, align 8, !tbaa !91
  %62 = load i32, ptr %23, align 4, !tbaa !37
  %63 = sext i32 %62 to i64
  %64 = getelementptr inbounds i8, ptr %61, i64 %63
  store i8 %60, ptr %64, align 1, !tbaa !92
  br label %65

65:                                               ; preds = %34
  %66 = load i32, ptr %23, align 4, !tbaa !37
  %67 = add nsw i32 %66, 1
  store i32 %67, ptr %23, align 4, !tbaa !37
  br label %30, !llvm.loop !121

68:                                               ; preds = %30
  %69 = load i64, ptr %17, align 8, !tbaa !50
  %70 = load ptr, ptr %14, align 8, !tbaa !91
  %71 = getelementptr inbounds i8, ptr %70, i64 %69
  store ptr %71, ptr %14, align 8, !tbaa !91
  %72 = load i64, ptr %15, align 8, !tbaa !50
  %73 = load ptr, ptr %12, align 8, !tbaa !91
  %74 = getelementptr inbounds i8, ptr %73, i64 %72
  store ptr %74, ptr %12, align 8, !tbaa !91
  %75 = load i64, ptr %16, align 8, !tbaa !50
  %76 = load ptr, ptr %13, align 8, !tbaa !91
  %77 = getelementptr inbounds i8, ptr %76, i64 %75
  store ptr %77, ptr %13, align 8, !tbaa !91
  br label %78

78:                                               ; preds = %68
  %79 = load i32, ptr %24, align 4, !tbaa !37
  %80 = add nsw i32 %79, 1
  store i32 %80, ptr %24, align 4, !tbaa !37
  br label %25, !llvm.loop !122

81:                                               ; preds = %25
  call void @llvm.lifetime.end.p0(i64 4, ptr %24) #11
  call void @llvm.lifetime.end.p0(i64 4, ptr %23) #11
  ret void
}