; Function Attrs: nofree norecurse nosync nounwind memory(argmem: readwrite) uwtable
define internal void @premultiply8yuv(ptr noundef readonly captures(none) %0, ptr noundef readonly captures(none) %1, ptr noundef writeonly captures(none) %2, i64 noundef %3, i64 noundef %4, i64 noundef %5, i32 noundef %6, i32 noundef %7, i32 %8, i32 %9, i32 %10) #5 {
  %12 = icmp sgt i32 %7, 0
  %13 = icmp sgt i32 %6, 0
  %or.cond = and i1 %12, %13
  br i1 %or.cond, label %.preheader.us.preheader, label %._crit_edge28

.preheader.us.preheader:                          ; preds = %11
  %wide.trip.count = zext nneg i32 %6 to i64
  br label %.preheader.us

.preheader.us:                                    ; preds = %.preheader.us.preheader, %._crit_edge.us
  %.027.us = phi i32 [ %33, %._crit_edge.us ], [ 0, %.preheader.us.preheader ]
  %.02026.us = phi ptr [ %31, %._crit_edge.us ], [ %0, %.preheader.us.preheader ]
  %.02125.us = phi ptr [ %32, %._crit_edge.us ], [ %1, %.preheader.us.preheader ]
  %.02224.us = phi ptr [ %30, %._crit_edge.us ], [ %2, %.preheader.us.preheader ]
  br label %14

14:                                               ; preds = %.preheader.us, %14
  %indvars.iv = phi i64 [ 0, %.preheader.us ], [ %indvars.iv.next, %14 ]
  %15 = getelementptr inbounds nuw i8, ptr %.02026.us, i64 %indvars.iv
  %16 = load i8, ptr %15, align 1, !tbaa !78
  %17 = zext i8 %16 to i32
  %18 = add nuw nsw i32 %17, 65408
  %19 = getelementptr inbounds nuw i8, ptr %.02125.us, i64 %indvars.iv
  %20 = load i8, ptr %19, align 1, !tbaa !78
  %21 = zext i8 %20 to i32
  %22 = lshr i32 %21, 1
  %23 = and i32 %22, 1
  %24 = add nuw nsw i32 %23, %21
  %25 = mul nuw nsw i32 %24, %18
  %26 = lshr i32 %25, 8
  %27 = trunc i32 %26 to i8
  %28 = xor i8 %27, -128
  %29 = getelementptr inbounds nuw i8, ptr %.02224.us, i64 %indvars.iv
  store i8 %28, ptr %29, align 1, !tbaa !78
  %indvars.iv.next = add nuw nsw i64 %indvars.iv, 1
  %exitcond.not = icmp eq i64 %indvars.iv.next, %wide.trip.count
  br i1 %exitcond.not, label %._crit_edge.us, label %14, !llvm.loop !103

._crit_edge.us:                                   ; preds = %14
  %30 = getelementptr inbounds i8, ptr %.02224.us, i64 %5
  %31 = getelementptr inbounds i8, ptr %.02026.us, i64 %3
  %32 = getelementptr inbounds i8, ptr %.02125.us, i64 %4
  %33 = add nuw nsw i32 %.027.us, 1
  %exitcond31.not = icmp eq i32 %33, %7
  br i1 %exitcond31.not, label %._crit_edge28, label %.preheader.us, !llvm.loop !104

._crit_edge28:                                    ; preds = %._crit_edge.us, %11
  ret void
}